; Function Attrs: nounwind sspstrong uwtable
define internal i64 @ossl_ts_req_get_nonce(i64 noundef %0) #0 {
  %2 = tail call ptr @rb_check_typeddata(i64 noundef %0, ptr noundef nonnull @ossl_ts_req_type) #7
  %.not = icmp eq ptr %2, null
  br i1 %.not, label %3, label %5

3:                                                ; preds = %1
  %4 = load i64, ptr @rb_eRuntimeError, align 8, !tbaa !6
  tail call void (i64, ptr, ...) @ossl_raise(i64 noundef %4, ptr noundef nonnull @.str.57) #8
  unreachable

5:                                                ; preds = %1
  %6 = tail call ptr @TS_REQ_get_nonce(ptr noundef nonnull %2) #7
  %.not6 = icmp eq ptr %6, null
  br i1 %.not6, label %9, label %7

7:                                                ; preds = %5
  %8 = tail call i64 @asn1integer_to_num(ptr noundef nonnull %6) #7
  br label %9

9:                                                ; preds = %5, %7
  %.0 = phi i64 [ %8, %7 ], [ 4, %5 ]
  ret i64 %.0
}